; Function Attrs: nofree norecurse nosync nounwind memory(readwrite, inaccessiblemem: none) uwtable
define hidden void @IntArgbToIndex12GrayXorBlit(ptr noundef %0, ptr noundef %1, i32 noundef %2, i32 noundef %3, ptr nocapture noundef readonly %4, ptr nocapture noundef readonly %5, ptr nocapture readnone %6, ptr nocapture noundef readonly %7) #0 {
  %9 = getelementptr inbounds i8, ptr %7, i64 4
  %10 = load i32, ptr %9, align 4
  %11 = getelementptr inbounds i8, ptr %7, i64 8
  %12 = load i32, ptr %11, align 4
  %13 = getelementptr inbounds i8, ptr %4, i64 32
  %14 = load i32, ptr %13, align 8
  %15 = getelementptr inbounds i8, ptr %5, i64 32
  %16 = load i32, ptr %15, align 8
  %17 = getelementptr inbounds i8, ptr %5, i64 80
  %18 = shl i32 %2, 2
  %19 = sub i32 %14, %18
  %20 = shl i32 %2, 1
  %21 = sub i32 %16, %20
  %22 = sext i32 %19 to i64
  %23 = xor i32 %12, -1
  %24 = sext i32 %21 to i64
  br label %25

25:                                               ; preds = %59, %8
  %.034 = phi ptr [ %1, %8 ], [ %63, %59 ]
  %.033 = phi ptr [ %0, %8 ], [ %61, %59 ]
  %.0 = phi i32 [ %3, %8 ], [ %64, %59 ]
  br label %26

26:                                               ; preds = %51, %25
  %.036 = phi i32 [ %2, %25 ], [ %58, %51 ]
  %.135 = phi ptr [ %.034, %25 ], [ %57, %51 ]
  %.1 = phi ptr [ %.033, %25 ], [ %54, %51 ]
  %27 = load i32, ptr %.1, align 4
  %28 = icmp sgt i32 %27, -1
  br i1 %28, label %51, label %29

29:                                               ; preds = %26
  %30 = and i32 %27, 255
  %31 = lshr i32 %27, 8
  %32 = and i32 %31, 255
  %33 = lshr i32 %27, 16
  %34 = and i32 %33, 255
  %35 = mul nuw nsw i32 %34, 77
  %36 = mul nuw nsw i32 %32, 150
  %37 = mul nuw nsw i32 %30, 29
  %38 = add nuw nsw i32 %37, 128
  %39 = add nuw nsw i32 %38, %36
  %40 = add nuw nsw i32 %39, %35
  %41 = lshr i32 %40, 8
  %42 = load ptr, ptr %17, align 8
  %43 = zext nneg i32 %41 to i64
  %44 = getelementptr inbounds i32, ptr %42, i64 %43
  %45 = load i32, ptr %44, align 4
  %46 = xor i32 %45, %10
  %47 = and i32 %46, %23
  %48 = load i16, ptr %.135, align 2
  %49 = trunc i32 %47 to i16
  %50 = xor i16 %48, %49
  store i16 %50, ptr %.135, align 2
  br label %51

51:                                               ; preds = %26, %29
  %52 = ptrtoint ptr %.1 to i64
  %53 = add nsw i64 %52, 4
  %54 = inttoptr i64 %53 to ptr
  %55 = ptrtoint ptr %.135 to i64
  %56 = add nsw i64 %55, 2
  %57 = inttoptr i64 %56 to ptr
  %58 = add i32 %.036, -1
  %.not = icmp eq i32 %58, 0
  br i1 %.not, label %59, label %26, !llvm.loop !49

59:                                               ; preds = %51
  %60 = add nsw i64 %53, %22
  %61 = inttoptr i64 %60 to ptr
  %62 = add nsw i64 %56, %24
  %63 = inttoptr i64 %62 to ptr
  %64 = add i32 %.0, -1
  %.not40 = icmp eq i32 %64, 0
  br i1 %.not40, label %65, label %25, !llvm.loop !50

65:                                               ; preds = %59
  ret void
}